target datalayout = "e-m:e-p270:32:32-p271:32:32-p272:64:64-i64:64-i128:128-f80:128-n8:16:32:64-S128"
target triple = "x86_64-pc-linux-gnu"

%struct.true_false_string = type { ptr, ptr }
%struct._packet_info = type { ptr, ptr, i32, i32, %struct.nstime_t, %struct.nstime_t, %struct.nstime_t, i8, ptr, ptr, ptr, ptr, %struct._address, %struct._address, %struct._address, %struct._address, %struct._address, %struct._address, i32, ptr, i8, [3 x i8], %struct.anon, i32, i32, i32, i32, ptr, i8, ptr, ptr, i16, i16, i32, i32, i16, i32, i32, ptr, ptr, ptr, i8, i8, i16, i16, i16, i32, i16, i16, ptr, ptr, ptr, ptr, ptr, i32, i32 }
%struct.nstime_t = type { i64, i32 }
%struct._address = type { i32, i32, ptr, ptr }
%struct.anon = type { i8, [3 x i8] }

@tfs_response_request = external constant %struct.true_false_string, align 8
@hf_ecmp_cyclic_link_number_display = internal global i32 0, align 4
@hf_ecmp_cyclic_link_req_resp = internal global i32 0, align 4
@hf_ecmp_process_time = internal global i32 0, align 4
@hf_ecmp_grandmaster = internal global i32 0, align 4
@hf_ecmp_udp_alignment = internal global i32 0, align 4
@hf_ecmp_udp_scheme = internal global i32 0, align 4
@ett_ecmp = internal global i32 0, align 4
@ett_ecmp_cyclic_data_32_bit_display = internal global i32 0, align 4
@ett_ecmp_cyclic_data_16_bit_display = internal global i32 0, align 4
@ett_ecmp_cyclic_data_8_bit_display = internal global i32 0, align 4
@.str.335 = private unnamed_addr constant [5 x i8] c"ECMP\00", align 1
@proto_ecmp = internal global i32 0, align 4
@.str.627 = private unnamed_addr constant [27 x i8] c"%s, %s. Transaction ID: %d\00", align 1
@.str.656 = private unnamed_addr constant [20 x i8] c"Unknown Type:0x%02x\00", align 1
@.str.657 = private unnamed_addr constant [43 x i8] c"Cyclic Data (32-bit hex unsigned format): \00", align 1
@.str.658 = private unnamed_addr constant [43 x i8] c"Cyclic Data (16-bit hex unsigned format): \00", align 1
@.str.659 = private unnamed_addr constant [42 x i8] c"Cyclic Data (8-bit hex unsigned format): \00", align 1
@cyclic_display_byte_format = internal constant i8 0, align 1

; Function Attrs: null_pointer_is_valid sspstrong uwtable
define internal i32 @dissect_ecmp_udp(ptr noundef %0, ptr noundef %1, ptr noundef %2, ptr noundef %3) #0 {
  %5 = alloca i32, align 4
  %6 = alloca ptr, align 8
  %7 = alloca ptr, align 8
  %8 = alloca ptr, align 8
  %9 = alloca ptr, align 8
  %10 = alloca ptr, align 8
  %11 = alloca ptr, align 8
  %12 = alloca ptr, align 8
  %13 = alloca ptr, align 8
  %14 = alloca ptr, align 8
  %15 = alloca i8, align 1
  %16 = alloca i8, align 1
  %17 = alloca i8, align 1
  %18 = alloca i16, align 2
  %19 = alloca i32, align 4
  %20 = alloca i8, align 1
  %21 = alloca i32, align 4
  store ptr %0, ptr %6, align 8
  store ptr %1, ptr %7, align 8
  store ptr %2, ptr %8, align 8
  store ptr %3, ptr %9, align 8
  call void @llvm.lifetime.start.p0(i64 8, ptr %10) #3
  store ptr null, ptr %10, align 8
  call void @llvm.lifetime.start.p0(i64 8, ptr %11) #3
  store ptr null, ptr %11, align 8
  call void @llvm.lifetime.start.p0(i64 8, ptr %12) #3
  store ptr null, ptr %12, align 8
  call void @llvm.lifetime.start.p0(i64 8, ptr %13) #3
  store ptr null, ptr %13, align 8
  call void @llvm.lifetime.start.p0(i64 8, ptr %14) #3
  store ptr null, ptr %14, align 8
  call void @llvm.lifetime.start.p0(i64 1, ptr %15) #3
  store i8 0, ptr %15, align 1
  call void @llvm.lifetime.start.p0(i64 1, ptr %16) #3
  store i8 0, ptr %16, align 1
  call void @llvm.lifetime.start.p0(i64 1, ptr %17) #3
  store i8 0, ptr %17, align 1
  call void @llvm.lifetime.start.p0(i64 2, ptr %18) #3
  store i16 0, ptr %18, align 2
  call void @llvm.lifetime.start.p0(i64 4, ptr %19) #3
  store i32 0, ptr %19, align 4
  call void @llvm.lifetime.start.p0(i64 1, ptr %20) #3
  store i8 0, ptr %20, align 1
  %22 = load ptr, ptr %6, align 8
  %23 = call i32 @tvb_reported_length(ptr noundef %22)
  store i32 %23, ptr %19, align 4
  %24 = load i32, ptr %19, align 4
  %25 = icmp slt i32 %24, 6
  br i1 %25, label %26, label %27

26:                                               ; preds = %4
  store i32 0, ptr %5, align 4
  store i32 1, ptr %21, align 4
  br label %204

27:                                               ; preds = %4
  %28 = load ptr, ptr %7, align 8
  %29 = getelementptr inbounds nuw %struct._packet_info, ptr %28, i32 0, i32 1
  %30 = load ptr, ptr %29, align 8
  call void @col_set_str(ptr noundef %30, i32 noundef 35, ptr noundef @.str.335)
  %31 = load ptr, ptr %7, align 8
  %32 = getelementptr inbounds nuw %struct._packet_info, ptr %31, i32 0, i32 1
  %33 = load ptr, ptr %32, align 8
  call void @col_clear(ptr noundef %33, i32 noundef 25)
  %34 = load i16, ptr %18, align 2
  %35 = zext i16 %34 to i32
  %36 = add i32 %35, 2
  %37 = trunc i32 %36 to i16
  store i16 %37, ptr %18, align 2
  %38 = load ptr, ptr %6, align 8
  %39 = load i16, ptr %18, align 2
  %40 = zext i16 %39 to i32
  %41 = call zeroext i8 @tvb_get_uint8(ptr noundef %38, i32 noundef %40)
  store i8 %41, ptr %17, align 1
  %42 = load i16, ptr %18, align 2
  %43 = zext i16 %42 to i32
  %44 = add i32 %43, 3
  %45 = trunc i32 %44 to i16
  store i16 %45, ptr %18, align 2
  %46 = load ptr, ptr %6, align 8
  %47 = load i16, ptr %18, align 2
  %48 = zext i16 %47 to i32
  %49 = call zeroext i8 @tvb_get_uint8(ptr noundef %46, i32 noundef %48)
  store i8 %49, ptr %16, align 1
  %50 = load i8, ptr %16, align 1
  %51 = zext i8 %50 to i32
  %52 = and i32 %51, 127
  %53 = trunc i32 %52 to i8
  store i8 %53, ptr %15, align 1
  %54 = load i16, ptr %18, align 2
  %55 = zext i16 %54 to i32
  %56 = add i32 %55, 2
  %57 = trunc i32 %56 to i16
  store i16 %57, ptr %18, align 2
  %58 = load ptr, ptr %7, align 8
  %59 = getelementptr inbounds nuw %struct._packet_info, ptr %58, i32 0, i32 1
  %60 = load ptr, ptr %59, align 8
  %61 = load i8, ptr %15, align 1
  %62 = zext i8 %61 to i32
  %63 = call ptr @val_to_str(i32 noundef %62, ptr noundef @command_vals, ptr noundef @.str.656)
  %64 = load i8, ptr %16, align 1
  %65 = zext i8 %64 to i32
  %66 = and i32 %65, 128
  %67 = ashr i32 %66, 7
  %68 = icmp ne i32 %67, 0
  %69 = call ptr @tfs_get_string(i1 noundef zeroext %68, ptr noundef @tfs_response_request)
  %70 = load i8, ptr %17, align 1
  %71 = zext i8 %70 to i32
  call void (ptr, i32, ptr, ...) @col_add_fstr(ptr noundef %60, i32 noundef 25, ptr noundef @.str.627, ptr noundef %63, ptr noundef %69, i32 noundef %71)
  %72 = load ptr, ptr %8, align 8
  %73 = load i32, ptr @proto_ecmp, align 4
  %74 = load ptr, ptr %6, align 8
  %75 = call ptr @proto_tree_add_item(ptr noundef %72, i32 noundef %73, ptr noundef %74, i32 noundef 0, i32 noundef -1, i32 noundef 0)
  store ptr %75, ptr %10, align 8
  %76 = load ptr, ptr %10, align 8
  %77 = load i32, ptr @ett_ecmp, align 4
  %78 = call ptr @proto_item_add_subtree(ptr noundef %76, i32 noundef %77)
  store ptr %78, ptr %11, align 8
  %79 = load ptr, ptr %11, align 8
  %80 = load i32, ptr @hf_ecmp_cyclic_link_req_resp, align 4
  %81 = load ptr, ptr %6, align 8
  %82 = load i16, ptr %18, align 2
  %83 = zext i16 %82 to i32
  %84 = call ptr @proto_tree_add_item(ptr noundef %79, i32 noundef %80, ptr noundef %81, i32 noundef %83, i32 noundef 1, i32 noundef 0)
  %85 = load ptr, ptr %11, align 8
  %86 = load i32, ptr @hf_ecmp_cyclic_link_number_display, align 4
  %87 = load ptr, ptr %6, align 8
  %88 = load i16, ptr %18, align 2
  %89 = zext i16 %88 to i32
  %90 = call ptr @proto_tree_add_item(ptr noundef %85, i32 noundef %86, ptr noundef %87, i32 noundef %89, i32 noundef 1, i32 noundef 0)
  %91 = load i16, ptr %18, align 2
  %92 = zext i16 %91 to i32
  %93 = add i32 %92, 1
  %94 = trunc i32 %93 to i16
  store i16 %94, ptr %18, align 2
  %95 = load i8, ptr %16, align 1
  %96 = zext i8 %95 to i32
  %97 = and i32 %96, 128
  %98 = icmp ne i32 %97, 0
  br i1 %98, label %99, label %201

99:                                               ; preds = %27
  %100 = load ptr, ptr %11, align 8
  %101 = load i32, ptr @hf_ecmp_udp_alignment, align 4
  %102 = load ptr, ptr %6, align 8
  %103 = load i16, ptr %18, align 2
  %104 = zext i16 %103 to i32
  %105 = call ptr @proto_tree_add_item(ptr noundef %100, i32 noundef %101, ptr noundef %102, i32 noundef %104, i32 noundef 1, i32 noundef 0)
  %106 = load i16, ptr %18, align 2
  %107 = zext i16 %106 to i32
  %108 = add i32 %107, 1
  %109 = trunc i32 %108 to i16
  store i16 %109, ptr %18, align 2
  %110 = load ptr, ptr %6, align 8
  %111 = load i16, ptr %18, align 2
  %112 = zext i16 %111 to i32
  %113 = call zeroext i8 @tvb_get_uint8(ptr noundef %110, i32 noundef %112)
  store i8 %113, ptr %20, align 1
  %114 = load ptr, ptr %11, align 8
  %115 = load i32, ptr @hf_ecmp_udp_scheme, align 4
  %116 = load ptr, ptr %6, align 8
  %117 = load i16, ptr %18, align 2
  %118 = zext i16 %117 to i32
  %119 = call ptr @proto_tree_add_item(ptr noundef %114, i32 noundef %115, ptr noundef %116, i32 noundef %118, i32 noundef 1, i32 noundef 0)
  %120 = load i16, ptr %18, align 2
  %121 = zext i16 %120 to i32
  %122 = add i32 %121, 1
  %123 = trunc i32 %122 to i16
  store i16 %123, ptr %18, align 2
  %124 = load i8, ptr %20, align 1
  %125 = zext i8 %124 to i32
  %126 = icmp eq i32 %125, 1
  br i1 %126, label %127, label %148

127:                                              ; preds = %99
  %128 = load ptr, ptr %11, align 8
  %129 = load i32, ptr @hf_ecmp_grandmaster, align 4
  %130 = load ptr, ptr %6, align 8
  %131 = load i16, ptr %18, align 2
  %132 = zext i16 %131 to i32
  %133 = call ptr @proto_tree_add_item(ptr noundef %128, i32 noundef %129, ptr noundef %130, i32 noundef %132, i32 noundef 8, i32 noundef 0)
  %134 = load i16, ptr %18, align 2
  %135 = zext i16 %134 to i32
  %136 = add i32 %135, 8
  %137 = trunc i32 %136 to i16
  store i16 %137, ptr %18, align 2
  %138 = load ptr, ptr %11, align 8
  %139 = load i32, ptr @hf_ecmp_process_time, align 4
  %140 = load ptr, ptr %6, align 8
  %141 = load i16, ptr %18, align 2
  %142 = zext i16 %141 to i32
  %143 = call ptr @proto_tree_add_item(ptr noundef %138, i32 noundef %139, ptr noundef %140, i32 noundef %142, i32 noundef 8, i32 noundef 0)
  %144 = load i16, ptr %18, align 2
  %145 = zext i16 %144 to i32
  %146 = add i32 %145, 8
  %147 = trunc i32 %146 to i16
  store i16 %147, ptr %18, align 2
  br label %148

148:                                              ; preds = %127, %99
  %149 = load ptr, ptr %11, align 8
  %150 = load ptr, ptr %6, align 8
  %151 = load i16, ptr %18, align 2
  %152 = zext i16 %151 to i32
  %153 = load i32, ptr @ett_ecmp_cyclic_data_32_bit_display, align 4
  %154 = call ptr @proto_tree_add_subtree(ptr noundef %149, ptr noundef %150, i32 noundef %152, i32 noundef 2, i32 noundef %153, ptr noundef null, ptr noundef @.str.657)
  store ptr %154, ptr %12, align 8
  %155 = load i16, ptr %18, align 2
  %156 = zext i16 %155 to i32
  %157 = load i32, ptr %19, align 4
  %158 = load i16, ptr %18, align 2
  %159 = zext i16 %158 to i32
  %160 = sub i32 %157, %159
  %161 = trunc i32 %160 to i16
  %162 = load ptr, ptr %6, align 8
  %163 = load ptr, ptr %7, align 8
  %164 = load ptr, ptr %12, align 8
  %165 = call i32 @display_raw_cyclic_data(i8 noundef zeroext 2, i32 noundef %156, i16 noundef zeroext %161, ptr noundef %162, ptr noundef %163, ptr noundef %164)
  %166 = load ptr, ptr %11, align 8
  %167 = load ptr, ptr %6, align 8
  %168 = load i16, ptr %18, align 2
  %169 = zext i16 %168 to i32
  %170 = load i32, ptr @ett_ecmp_cyclic_data_16_bit_display, align 4
  %171 = call ptr @proto_tree_add_subtree(ptr noundef %166, ptr noundef %167, i32 noundef %169, i32 noundef 2, i32 noundef %170, ptr noundef null, ptr noundef @.str.658)
  store ptr %171, ptr %13, align 8
  %172 = load i16, ptr %18, align 2
  %173 = zext i16 %172 to i32
  %174 = load i32, ptr %19, align 4
  %175 = load i16, ptr %18, align 2
  %176 = zext i16 %175 to i32
  %177 = sub i32 %174, %176
  %178 = trunc i32 %177 to i16
  %179 = load ptr, ptr %6, align 8
  %180 = load ptr, ptr %7, align 8
  %181 = load ptr, ptr %13, align 8
  %182 = call i32 @display_raw_cyclic_data(i8 noundef zeroext 1, i32 noundef %173, i16 noundef zeroext %178, ptr noundef %179, ptr noundef %180, ptr noundef %181)
  %183 = load ptr, ptr %11, align 8
  %184 = load ptr, ptr %6, align 8
  %185 = load i16, ptr %18, align 2
  %186 = zext i16 %185 to i32
  %187 = load i32, ptr @ett_ecmp_cyclic_data_8_bit_display, align 4
  %188 = call ptr @proto_tree_add_subtree(ptr noundef %183, ptr noundef %184, i32 noundef %186, i32 noundef 2, i32 noundef %187, ptr noundef null, ptr noundef @.str.659)
  store ptr %188, ptr %14, align 8
  %189 = load i8, ptr @cyclic_display_byte_format, align 1
  %190 = load i16, ptr %18, align 2
  %191 = zext i16 %190 to i32
  %192 = load i32, ptr %19, align 4
  %193 = load i16, ptr %18, align 2
  %194 = zext i16 %193 to i32
  %195 = sub i32 %192, %194
  %196 = trunc i32 %195 to i16
  %197 = load ptr, ptr %6, align 8
  %198 = load ptr, ptr %7, align 8
  %199 = load ptr, ptr %14, align 8
  %200 = call i32 @display_raw_cyclic_data(i8 noundef zeroext %189, i32 noundef %191, i16 noundef zeroext %196, ptr noundef %197, ptr noundef %198, ptr noundef %199)
  br label %201

201:                                              ; preds = %148, %27
  %202 = load ptr, ptr %6, align 8
  %203 = call i32 @tvb_reported_length(ptr noundef %202)
  store i32 %203, ptr %5, align 4
  store i32 1, ptr %21, align 4
  br label %204

204:                                              ; preds = %201, %26
  call void @llvm.lifetime.end.p0(i64 1, ptr %20) #3
  call void @llvm.lifetime.end.p0(i64 4, ptr %19) #3
  call void @llvm.lifetime.end.p0(i64 2, ptr %18) #3
  call void @llvm.lifetime.end.p0(i64 1, ptr %17) #3
  call void @llvm.lifetime.end.p0(i64 1, ptr %16) #3
  call void @llvm.lifetime.end.p0(i64 1, ptr %15) #3
  call void @llvm.lifetime.end.p0(i64 8, ptr %14) #3
  call void @llvm.lifetime.end.p0(i64 8, ptr %13) #3
  call void @llvm.lifetime.end.p0(i64 8, ptr %12) #3
  call void @llvm.lifetime.end.p0(i64 8, ptr %11) #3
  call void @llvm.lifetime.end.p0(i64 8, ptr %10) #3
  %205 = load i32, ptr %5, align 4
  ret i32 %205
}