; Function Attrs: null_pointer_is_valid sspstrong uwtable
define internal i32 @dissect_ecmp_udp(ptr noundef %0, ptr noundef readonly captures(none) %1, ptr noundef %2, ptr readnone captures(none) %3) #0 {
  %5 = tail call i32 @tvb_reported_length(ptr noundef %0)
  %6 = icmp slt i32 %5, 6
  br i1 %6, label %52, label %7

7:                                                ; preds = %4
  %8 = getelementptr inbounds nuw i8, ptr %1, i64 8
  %9 = load ptr, ptr %8, align 8
  tail call void @col_set_str(ptr noundef %9, i32 noundef 35, ptr noundef nonnull @.str.335)
  %10 = load ptr, ptr %8, align 8
  tail call void @col_clear(ptr noundef %10, i32 noundef 25)
  %11 = tail call zeroext i8 @tvb_get_uint8(ptr noundef %0, i32 noundef 2)
  %12 = tail call zeroext i8 @tvb_get_uint8(ptr noundef %0, i32 noundef 5)
  %13 = and i8 %12, 127
  %14 = load ptr, ptr %8, align 8
  %15 = zext nneg i8 %13 to i32
  %16 = tail call ptr @val_to_str(i32 noundef %15, ptr noundef nonnull @command_vals, ptr noundef nonnull @.str.656)
  %17 = and i8 %12, -128
  %18 = icmp ne i8 %17, 0
  %19 = tail call ptr @tfs_get_string(i1 noundef zeroext %18, ptr noundef nonnull @tfs_response_request)
  %20 = zext i8 %11 to i32
  tail call void (ptr, i32, ptr, ...) @col_add_fstr(ptr noundef %14, i32 noundef 25, ptr noundef nonnull @.str.627, ptr noundef %16, ptr noundef %19, i32 noundef %20)
  %21 = load i32, ptr @proto_ecmp, align 4
  %22 = tail call ptr @proto_tree_add_item(ptr noundef %2, i32 noundef %21, ptr noundef %0, i32 noundef 0, i32 noundef -1, i32 noundef 0)
  %23 = load i32, ptr @ett_ecmp, align 4
  %24 = tail call ptr @proto_item_add_subtree(ptr noundef %22, i32 noundef %23)
  %25 = load i32, ptr @hf_ecmp_cyclic_link_req_resp, align 4
  %26 = tail call ptr @proto_tree_add_item(ptr noundef %24, i32 noundef %25, ptr noundef %0, i32 noundef 7, i32 noundef 1, i32 noundef 0)
  %27 = load i32, ptr @hf_ecmp_cyclic_link_number_display, align 4
  %28 = tail call ptr @proto_tree_add_item(ptr noundef %24, i32 noundef %27, ptr noundef %0, i32 noundef 7, i32 noundef 1, i32 noundef 0)
  %.not = icmp eq i8 %17, 0
  br i1 %.not, label %50, label %29

29:                                               ; preds = %7
  %30 = load i32, ptr @hf_ecmp_udp_alignment, align 4
  %31 = tail call ptr @proto_tree_add_item(ptr noundef %24, i32 noundef %30, ptr noundef %0, i32 noundef 8, i32 noundef 1, i32 noundef 0)
  %32 = tail call zeroext i8 @tvb_get_uint8(ptr noundef %0, i32 noundef 9)
  %33 = load i32, ptr @hf_ecmp_udp_scheme, align 4
  %34 = tail call ptr @proto_tree_add_item(ptr noundef %24, i32 noundef %33, ptr noundef %0, i32 noundef 9, i32 noundef 1, i32 noundef 0)
  %35 = icmp eq i8 %32, 1
  br i1 %35, label %36, label %41

36:                                               ; preds = %29
  %37 = load i32, ptr @hf_ecmp_grandmaster, align 4
  %38 = tail call ptr @proto_tree_add_item(ptr noundef %24, i32 noundef %37, ptr noundef %0, i32 noundef 10, i32 noundef 8, i32 noundef 0)
  %39 = load i32, ptr @hf_ecmp_process_time, align 4
  %40 = tail call ptr @proto_tree_add_item(ptr noundef %24, i32 noundef %39, ptr noundef %0, i32 noundef 18, i32 noundef 8, i32 noundef 0)
  br label %41

41:                                               ; preds = %36, %29
  %.0 = phi i32 [ 26, %36 ], [ 10, %29 ]
  %42 = load i32, ptr @ett_ecmp_cyclic_data_32_bit_display, align 4
  %43 = tail call ptr @proto_tree_add_subtree(ptr noundef %24, ptr noundef %0, i32 noundef %.0, i32 noundef 2, i32 noundef %42, ptr noundef null, ptr noundef nonnull @.str.657)
  %44 = sub nsw i32 %5, %.0
  %45 = trunc i32 %44 to i16
  tail call fastcc void @display_raw_cyclic_data(i8 noundef zeroext 2, i32 noundef %.0, i16 noundef zeroext %45, ptr noundef %0, ptr noundef %1, ptr noundef %43)
  %46 = load i32, ptr @ett_ecmp_cyclic_data_16_bit_display, align 4
  %47 = tail call ptr @proto_tree_add_subtree(ptr noundef %24, ptr noundef %0, i32 noundef %.0, i32 noundef 2, i32 noundef %46, ptr noundef null, ptr noundef nonnull @.str.658)
  tail call fastcc void @display_raw_cyclic_data(i8 noundef zeroext 1, i32 noundef %.0, i16 noundef zeroext %45, ptr noundef %0, ptr noundef %1, ptr noundef %47)
  %48 = load i32, ptr @ett_ecmp_cyclic_data_8_bit_display, align 4
  %49 = tail call ptr @proto_tree_add_subtree(ptr noundef %24, ptr noundef %0, i32 noundef %.0, i32 noundef 2, i32 noundef %48, ptr noundef null, ptr noundef nonnull @.str.659)
  tail call fastcc void @display_raw_cyclic_data(i8 noundef zeroext 0, i32 noundef %.0, i16 noundef zeroext %45, ptr noundef %0, ptr noundef %1, ptr noundef %49)
  br label %50

50:                                               ; preds = %41, %7
  %51 = tail call i32 @tvb_reported_length(ptr noundef %0)
  br label %52

52:                                               ; preds = %4, %50
  %.074 = phi i32 [ %51, %50 ], [ 0, %4 ]
  ret i32 %.074
}